******************************************************************************
                  MSP430 Linker PC v4.0.0                      
******************************************************************************
>> Linked Mon Nov 28 16:39:41 2011

OUTPUT FILE NAME:   <TXRXLPF1.out>
ENTRY POINT SYMBOL: "_c_int00"  address: 00002272


MEMORY CONFIGURATION

         name            origin    length      used     unused   attr    fill
----------------------  --------  ---------  --------  --------  ----  --------
  SFR                   00000000   00000010  00000000  00000010  RWIX
  PERIPHERALS_8BIT      00000010   000000f0  00000000  000000f0  RWIX
  PERIPHERALS_16BIT     00000100   00000100  00000000  00000100  RWIX
  INFOB                 00001000   00000080  00000000  00000080  RWIX
  INFOA                 00001080   00000080  00000000  00000080  RWIX
  RAM                   00001100   00001000  00000244  00000dbc  RWIX
  FLASH                 00002100   0000dec0  00000f0e  0000cfb2  RWIX
  INT00                 0000ffc0   00000002  00000000  00000002  RWIX
  INT01                 0000ffc2   00000002  00000000  00000002  RWIX
  INT02                 0000ffc4   00000002  00000000  00000002  RWIX
  INT03                 0000ffc6   00000002  00000000  00000002  RWIX
  INT04                 0000ffc8   00000002  00000000  00000002  RWIX
  INT05                 0000ffca   00000002  00000000  00000002  RWIX
  INT06                 0000ffcc   00000002  00000000  00000002  RWIX
  INT07                 0000ffce   00000002  00000000  00000002  RWIX
  INT08                 0000ffd0   00000002  00000000  00000002  RWIX
  INT09                 0000ffd2   00000002  00000000  00000002  RWIX
  INT10                 0000ffd4   00000002  00000000  00000002  RWIX
  INT11                 0000ffd6   00000002  00000000  00000002  RWIX
  INT12                 0000ffd8   00000002  00000000  00000002  RWIX
  INT13                 0000ffda   00000002  00000000  00000002  RWIX
  INT14                 0000ffdc   00000002  00000000  00000002  RWIX
  INT15                 0000ffde   00000002  00000000  00000002  RWIX
  INT16                 0000ffe0   00000002  00000002  00000000  RWIX
  INT17                 0000ffe2   00000002  00000000  00000002  RWIX
  INT18                 0000ffe4   00000002  00000000  00000002  RWIX
  INT19                 0000ffe6   00000002  00000000  00000002  RWIX
  INT20                 0000ffe8   00000002  00000000  00000002  RWIX
  INT21                 0000ffea   00000002  00000000  00000002  RWIX
  INT22                 0000ffec   00000002  00000000  00000002  RWIX
  INT23                 0000ffee   00000002  00000002  00000000  RWIX
  INT24                 0000fff0   00000002  00000000  00000002  RWIX
  INT25                 0000fff2   00000002  00000002  00000000  RWIX
  INT26                 0000fff4   00000002  00000000  00000002  RWIX
  INT27                 0000fff6   00000002  00000000  00000002  RWIX
  INT28                 0000fff8   00000002  00000000  00000002  RWIX
  INT29                 0000fffa   00000002  00000000  00000002  RWIX
  INT30                 0000fffc   00000002  00000000  00000002  RWIX
  RESET                 0000fffe   00000002  00000002  00000000  RWIX
  FLASH2                00010000   00009000  00000000  00009000  RWIX


SECTION ALLOCATION MAP

 output                                  attributes/
section   page    origin      length       input sections
--------  ----  ----------  ----------   ----------------
.pinit     0    00002100    00000000     UNINITIALIZED

.bss       0    00001100    000001a4     UNINITIALIZED
                  00001100    00000154     telitcomm.obj (.bss)
                  00001254    00000038     main.obj (.bss)
                  0000128c    00000008     rts430x.lib : _lock.obj (.bss)
                  00001294    00000008                 : boot.obj (.bss)
                  0000129c    00000008                 : memory.obj (.bss)

.sysmem    0    000012a4    00000050     UNINITIALIZED
                  000012a4    00000004     rts430x.lib : memory.obj (.sysmem)
                  000012a8    0000004c     --HOLE--

.stack     0    000020b0    00000050     UNINITIALIZED
                  000020b0    00000002     rts430x.lib : boot.obj (.stack)
                  000020b2    0000004e     --HOLE--

.cinit     0    00002100    00000140     
                  00002100    00000126     telitcomm.obj (.cinit)
                  00002226    00000012     main.obj (.cinit)
                  00002238    00000006     rts430x.lib : memory.obj (.cinit)
                  0000223e    00000002     --HOLE-- [fill = 0]

.text:_isr 
*          0    00002240    00000074     
                  00002240    00000032     telitcomm.obj (.text:_isr:USCIA0RX_ISR)
                  00002272    0000002a     rts430x.lib : boot.obj (.text:_isr:_c_int00_noexit)
                  0000229c    0000000e     telitcomm.obj (.text:_isr:ADC12ISR)
                  000022aa    0000000a     main.obj (.text:_isr:basic_timer)

.text      0    000022b4    00000c0c     
                  000022b4    0000015e     telitcomm.obj (.text:transComms)
                  00002412    0000010a     rts430x.lib : _printfi_min.obj (.text:_setfield)
                  0000251c    000000c0                 : _printfi_min.obj (.text:_printfi_minimal)
                  000025dc    000000a6                 : memory.obj (.text:malloc)
                  00002682    00000080                 : memory.obj (.text:free)
                  00002702    0000006c     telitcomm.obj (.text:performPost)
                  0000276e    00000068     main.obj (.text:store_data)
                  000027d6    0000005a     telitcomm.obj (.text:ackSGACT)
                  00002830    00000058     telitcomm.obj (.text:initComms)
                  00002888    00000058     main.obj (.text:initialize)
                  000028e0    00000058     rts430x.lib : div32u.obj (.text)
                  00002938    00000052                 : _printfi_min.obj (.text:_ltostr)
                  0000298a    0000004e     telitcomm.obj (.text:getResponse)
                  000029d8    0000004e     main.obj (.text:retrieve_data)
                  00002a26    0000004e     telitcomm.obj (.text:sendCmd)
                  00002a74    00000046     rts430x.lib : autoinit.obj (.text:_auto_init)
                  00002aba    00000042     main.obj (.text:initialize_fifo)
                  00002afc    00000040     rts430x.lib : _printfi_min.obj (.text:_pproc_str)
                  00002b3c    00000040                 : div32s.obj (.text)
                  00002b7c    0000003a                 : memory.obj (.text:minit)
                  00002bb6    00000038                 : sprintf.obj (.text:sprintf)
                  00002bee    00000032     main.obj (.text:Transmit)
                  00002c20    00000030     rts430x.lib : mult32_hw.obj (.text)
                  00002c50    0000002e                 : _printfi_min.obj (.text:_getarg_diouxp)
                  00002c7e    0000002c                 : _printfi_min.obj (.text:_pproc_diouxp)
                  00002caa    00000028                 : memccpy.obj (.text:memccpy)
                  00002cd2    00000028     main.obj (.text:tick)
                  00002cfa    00000026     telitcomm.obj (.text:getRXBufferChar)
                  00002d20    00000024     rts430x.lib : memcmp.obj (.text:memcmp)
                  00002d44    0000001e     telitcomm.obj (.text:ackOK)
                  00002d62    0000001e     main.obj (.text:measure_temperature)
                  00002d80    0000001c     main.obj (.text:process_state)
                  00002d9c    0000001a     rts430x.lib : _printfi_min.obj (.text:_div)
                  00002db6    00000018                 : sprintf.obj (.text:_outs)
                  00002dce    00000018                 : strcmp.obj (.text:strcmp)
                  00002de6    00000016                 : div16u.obj (.text)
                  00002dfc    00000016                 : mult16_hw.obj (.text)
                  00002e12    00000014                 : memset.obj (.text:memset)
                  00002e26    00000012                 : sprintf.obj (.text:_outc)
                  00002e38    00000012     telitcomm.obj (.text:clearRXBuffer)
                  00002e4a    00000012     rts430x.lib : memcpy.obj (.text:memcpy)
                  00002e5c    00000012                 : strlen.obj (.text:strlen)
                  00002e6e    0000000e     main.obj (.text:configure_timer)
                  00002e7c    0000000e     telitcomm.obj (.text:isRXBufferEmpty)
                  00002e8a    0000000e     main.obj (.text:not_empty)
                  00002e98    00000008     telitcomm.obj (.text:ackPost)
                  00002ea0    00000008     telitcomm.obj (.text:ackSD)
                  00002ea8    00000008     main.obj (.text:show_tick)
                  00002eb0    00000006     main.obj (.text:main)
                  00002eb6    00000004     rts430x.lib : pre_init.obj (.text:_system_pre_init)
                  00002eba    00000004                 : exit.obj (.text:abort)
                  00002ebe    00000002                 : _lock.obj (.text:_nop)

.const     0    00002ec0    0000014e     
                  00002ec0    0000013a     telitcomm.obj (.const:.string)
                  00002ffa    00000014     rts430x.lib : _printfi_min.obj (.const:.string)

.int16     0    0000ffe0    00000002     
                  0000ffe0    00000002     main.obj (.int16)

.int23     0    0000ffee    00000002     
                  0000ffee    00000002     telitcomm.obj (.int23)

.int25     0    0000fff2    00000002     
                  0000fff2    00000002     telitcomm.obj (.int25)

.reset     0    0000fffe    00000002     
                  0000fffe    00000002     rts430x.lib : boot.obj (.reset)


GLOBAL SYMBOLS: SORTED ALPHABETICALLY BY Name 

address    name
--------   ----
00001100   .bss
ffffffff   .text
000001a0   ADC12CTL0
000001a2   ADC12CTL1
000001a6   ADC12IE
000001a4   ADC12IFG
0000229c   ADC12ISR
000001a8   ADC12IV
00000080   ADC12MCTL0
00000081   ADC12MCTL1
0000008a   ADC12MCTL10
0000008b   ADC12MCTL11
0000008c   ADC12MCTL12
0000008d   ADC12MCTL13
0000008e   ADC12MCTL14
0000008f   ADC12MCTL15
00000082   ADC12MCTL2
00000083   ADC12MCTL3
00000084   ADC12MCTL4
00000085   ADC12MCTL5
00000086   ADC12MCTL6
00000087   ADC12MCTL7
00000088   ADC12MCTL8
00000089   ADC12MCTL9
00000140   ADC12MEM0
00000142   ADC12MEM1
00000154   ADC12MEM10
00000156   ADC12MEM11
00000158   ADC12MEM12
0000015a   ADC12MEM13
0000015c   ADC12MEM14
0000015e   ADC12MEM15
00000144   ADC12MEM2
00000146   ADC12MEM3
00000148   ADC12MEM4
0000014a   ADC12MEM5
0000014c   ADC12MEM6
0000014e   ADC12MEM7
00000150   ADC12MEM8
00000152   ADC12MEM9
000011a8   ADCresult
00000046   BTCNT1
00000046   BTCNT12
00000047   BTCNT2
00000040   BTCTL
00002eba   C$$EXIT
00000059   CACTL1
0000005a   CACTL2
0000005b   CAPD
000001c0   DAC12_0CTL
000001c8   DAC12_0DAT
000001c2   DAC12_1CTL
000001ca   DAC12_1DAT
000001d0   DMA0CTL
000001d6   DMA0DA
000001d6   DMA0DAL
000001d2   DMA0SA
000001d2   DMA0SAL
000001da   DMA0SZ
000001dc   DMA1CTL
000001e2   DMA1DA
000001e2   DMA1DAL
000001de   DMA1SA
000001de   DMA1SAL
000001e6   DMA1SZ
000001e8   DMA2CTL
000001ee   DMA2DA
000001ee   DMA2DAL
000001ea   DMA2SA
000001ea   DMA2SAL
000001f2   DMA2SZ
00000122   DMACTL0
00000124   DMACTL1
00000126   DMAIV
000011aa   DegC
000011ae   DegF
00000128   FCTL1
0000012a   FCTL2
0000012c   FCTL3
00000053   FLL_CTL0
00000054   FLL_CTL1
00000000   IE1
00000001   IE2
00000002   IFG1
00000003   IFG2
00000090   LCDACTL
000000ac   LCDAPCTL0
000000ad   LCDAPCTL1
000000ae   LCDAVCTL0
000000af   LCDAVCTL1
00000091   LCDM1
0000009a   LCDM10
0000009b   LCDM11
0000009c   LCDM12
0000009d   LCDM13
0000009e   LCDM14
0000009f   LCDM15
000000a0   LCDM16
000000a1   LCDM17
000000a2   LCDM18
000000a3   LCDM19
00000092   LCDM2
000000a4   LCDM20
00000093   LCDM3
00000094   LCDM4
00000095   LCDM5
00000096   LCDM6
00000097   LCDM7
00000098   LCDM8
00000099   LCDM9
00000134   MAC
00000136   MACS
00000005   ME2
00000130   MPY
00000132   MPYS
000000c0   OA0CTL0
000000c1   OA0CTL1
000000c2   OA1CTL0
000000c3   OA1CTL1
000000c4   OA2CTL0
000000c5   OA2CTL1
00000138   OP2
0000000d   P10DIR
00000009   P10IN
0000000b   P10OUT
0000000f   P10SEL
00000022   P1DIR
00000025   P1IE
00000024   P1IES
00000023   P1IFG
00000020   P1IN
00000021   P1OUT
00000026   P1SEL
0000002a   P2DIR
0000002d   P2IE
0000002c   P2IES
0000002b   P2IFG
00000028   P2IN
00000029   P2OUT
0000002e   P2SEL
0000001a   P3DIR
00000018   P3IN
00000019   P3OUT
0000001b   P3SEL
0000001e   P4DIR
0000001c   P4IN
0000001d   P4OUT
0000001f   P4SEL
00000032   P5DIR
00000030   P5IN
00000031   P5OUT
00000033   P5SEL
00000036   P6DIR
00000034   P6IN
00000035   P6OUT
00000037   P6SEL
0000003c   P7DIR
00000038   P7IN
0000003a   P7OUT
0000003e   P7SEL
0000003d   P8DIR
00000039   P8IN
0000003b   P8OUT
0000003f   P8SEL
0000000c   P9DIR
00000008   P9IN
0000000a   P9OUT
0000000e   P9SEL
0000003c   PADIR
00000038   PAIN
0000003a   PAOUT
0000003e   PASEL
0000000c   PBDIR
00000008   PBIN
0000000a   PBOUT
0000000e   PBSEL
0000013c   RESHI
0000013a   RESLO
00000041   RTCCTL
0000004c   RTCDATE
0000004c   RTCDAY
0000004d   RTCMON
00000042   RTCNT1
00000043   RTCNT2
00000044   RTCNT3
00000045   RTCNT4
00000042   RTCTIM0
00000044   RTCTIM1
00000040   RTCTL
0000004e   RTCYEAR
0000004f   RTCYEARH
0000004e   RTCYEARL
00000050   SCFI0
00000051   SCFI1
00000052   SCFQCTL
0000013e   SUMEXT
00000056   SVSCTL
00000172   TACCR0
00000174   TACCR1
00000176   TACCR2
00000162   TACCTL0
00000164   TACCTL1
00000166   TACCTL2
00000160   TACTL
0000012e   TAIV
00000170   TAR
00000192   TBCCR0
00000194   TBCCR1
00000196   TBCCR2
00000198   TBCCR3
0000019a   TBCCR4
0000019c   TBCCR5
0000019e   TBCCR6
00000182   TBCCTL0
00000184   TBCCTL1
00000186   TBCCTL2
00000188   TBCCTL3
0000018a   TBCCTL4
0000018c   TBCCTL5
0000018e   TBCCTL6
00000180   TBCTL
0000011e   TBIV
00000190   TBR
00002bee   Transmit
0000007c   U1BR0
0000007d   U1BR1
00000078   U1CTL
0000007b   U1MCTL
0000007a   U1RCTL
0000007e   U1RXBUF
00000079   U1TCTL
0000007f   U1TXBUF
0000005d   UCA0ABCTL
00000062   UCA0BR0
00000063   UCA0BR1
00000060   UCA0CTL0
00000061   UCA0CTL1
0000005f   UCA0IRRCTL
0000005e   UCA0IRTCTL
00000064   UCA0MCTL
00000066   UCA0RXBUF
00000065   UCA0STAT
00000067   UCA0TXBUF
0000006a   UCB0BR0
0000006b   UCB0BR1
00000068   UCB0CTL0
00000069   UCB0CTL1
0000006c   UCB0I2CIE
00000118   UCB0I2COA
0000011a   UCB0I2CSA
0000006e   UCB0RXBUF
0000006d   UCB0STAT
0000006f   UCB0TXBUF
00002240   USCIA0RX_ISR
00000120   WDTCTL
00002100   __STACK_END
00000050   __STACK_SIZE
00000050   __SYSMEM_SIZE
00000001   __TI_args_main
00000001   __TI_auto_init
00000001   __TI_exit
ffffffff   __binit__
00001100   __bss__
ffffffff   __c_args__
00002100   __cinit__
00002b3c   __divli
00002de6   __divu
000028e0   __divul
000012a4   __end__
ffffffff   __etext__
00002dfc   __mpyi_hw
00002c20   __mpyl_hw
ffffffff   __pinit__
00002b3c   __remli
00002de6   __remu
000028e0   __remul
ffffffff   __text__
00002a74   _auto_init
00002272   _c_int00
00002272   _c_int00_noexit
00001294   _cleanup_ptr
00001298   _dtors_ptr
0000128c   _lock
00002ebe   _nop
0000251c   _printfi_minimal
0000fffe   _reset_vector
000020b0   _stack
000012a4   _sys_memory
00002eb6   _system_pre_init
00001290   _unlock
00002eba   abort
00002d44   ackOK
00002e98   ackPost
00002ea0   ackSD
000027d6   ackSGACT
000022aa   basic_timer
ffffffff   binit
00002100   cinit
00002e38   clearRXBuffer
000011a4   cmdstatus
00002e6e   configure_timer
00001258   control_state
0000125a   datastore
000012a4   end
ffffffff   etext
00002682   free
00002cfa   getRXBufferChar
0000298a   getResponse
000011a6   i
00002830   initComms
00002888   initialize
00002aba   initialize_fifo
00002e7c   isRXBufferEmpty
00002eb0   main
000025dc   malloc
00001100   mbi
00001180   mbpos
00002d62   measure_temperature
00002caa   memccpy
00002d20   memcmp
00002e4a   memcpy
00002e12   memset
00002b7c   minit
00001256   minutes_counter
00002e8a   not_empty
00002702   performPost
ffffffff   pinit
00002d80   process_state
000029d8   retrieve_data
00002a26   sendCmd
00002ea8   show_tick
00002bb6   sprintf
0000276e   store_data
00002dce   strcmp
00002e5c   strlen
00001288   tempAverage
00002cd2   tick
000011b2   timedout
000022b4   transComms
00001270   transmit_log
00001254   two_second_intervals
00001286   tx_byte
00001182   ucRXBuffer
000011a3   ucReadIndex
000011a2   ucWriteIndex


GLOBAL SYMBOLS: SORTED BY Symbol Address 

address    name
--------   ----
00000000   IE1
00000001   IE2
00000001   __TI_args_main
00000001   __TI_auto_init
00000001   __TI_exit
00000002   IFG1
00000003   IFG2
00000005   ME2
00000008   P9IN
00000008   PBIN
00000009   P10IN
0000000a   P9OUT
0000000a   PBOUT
0000000b   P10OUT
0000000c   P9DIR
0000000c   PBDIR
0000000d   P10DIR
0000000e   P9SEL
0000000e   PBSEL
0000000f   P10SEL
00000018   P3IN
00000019   P3OUT
0000001a   P3DIR
0000001b   P3SEL
0000001c   P4IN
0000001d   P4OUT
0000001e   P4DIR
0000001f   P4SEL
00000020   P1IN
00000021   P1OUT
00000022   P1DIR
00000023   P1IFG
00000024   P1IES
00000025   P1IE
00000026   P1SEL
00000028   P2IN
00000029   P2OUT
0000002a   P2DIR
0000002b   P2IFG
0000002c   P2IES
0000002d   P2IE
0000002e   P2SEL
00000030   P5IN
00000031   P5OUT
00000032   P5DIR
00000033   P5SEL
00000034   P6IN
00000035   P6OUT
00000036   P6DIR
00000037   P6SEL
00000038   P7IN
00000038   PAIN
00000039   P8IN
0000003a   P7OUT
0000003a   PAOUT
0000003b   P8OUT
0000003c   P7DIR
0000003c   PADIR
0000003d   P8DIR
0000003e   P7SEL
0000003e   PASEL
0000003f   P8SEL
00000040   BTCTL
00000040   RTCTL
00000041   RTCCTL
00000042   RTCNT1
00000042   RTCTIM0
00000043   RTCNT2
00000044   RTCNT3
00000044   RTCTIM1
00000045   RTCNT4
00000046   BTCNT1
00000046   BTCNT12
00000047   BTCNT2
0000004c   RTCDATE
0000004c   RTCDAY
0000004d   RTCMON
0000004e   RTCYEAR
0000004e   RTCYEARL
0000004f   RTCYEARH
00000050   SCFI0
00000050   __STACK_SIZE
00000050   __SYSMEM_SIZE
00000051   SCFI1
00000052   SCFQCTL
00000053   FLL_CTL0
00000054   FLL_CTL1
00000056   SVSCTL
00000059   CACTL1
0000005a   CACTL2
0000005b   CAPD
0000005d   UCA0ABCTL
0000005e   UCA0IRTCTL
0000005f   UCA0IRRCTL
00000060   UCA0CTL0
00000061   UCA0CTL1
00000062   UCA0BR0
00000063   UCA0BR1
00000064   UCA0MCTL
00000065   UCA0STAT
00000066   UCA0RXBUF
00000067   UCA0TXBUF
00000068   UCB0CTL0
00000069   UCB0CTL1
0000006a   UCB0BR0
0000006b   UCB0BR1
0000006c   UCB0I2CIE
0000006d   UCB0STAT
0000006e   UCB0RXBUF
0000006f   UCB0TXBUF
00000078   U1CTL
00000079   U1TCTL
0000007a   U1RCTL
0000007b   U1MCTL
0000007c   U1BR0
0000007d   U1BR1
0000007e   U1RXBUF
0000007f   U1TXBUF
00000080   ADC12MCTL0
00000081   ADC12MCTL1
00000082   ADC12MCTL2
00000083   ADC12MCTL3
00000084   ADC12MCTL4
00000085   ADC12MCTL5
00000086   ADC12MCTL6
00000087   ADC12MCTL7
00000088   ADC12MCTL8
00000089   ADC12MCTL9
0000008a   ADC12MCTL10
0000008b   ADC12MCTL11
0000008c   ADC12MCTL12
0000008d   ADC12MCTL13
0000008e   ADC12MCTL14
0000008f   ADC12MCTL15
00000090   LCDACTL
00000091   LCDM1
00000092   LCDM2
00000093   LCDM3
00000094   LCDM4
00000095   LCDM5
00000096   LCDM6
00000097   LCDM7
00000098   LCDM8
00000099   LCDM9
0000009a   LCDM10
0000009b   LCDM11
0000009c   LCDM12
0000009d   LCDM13
0000009e   LCDM14
0000009f   LCDM15
000000a0   LCDM16
000000a1   LCDM17
000000a2   LCDM18
000000a3   LCDM19
000000a4   LCDM20
000000ac   LCDAPCTL0
000000ad   LCDAPCTL1
000000ae   LCDAVCTL0
000000af   LCDAVCTL1
000000c0   OA0CTL0
000000c1   OA0CTL1
000000c2   OA1CTL0
000000c3   OA1CTL1
000000c4   OA2CTL0
000000c5   OA2CTL1
00000118   UCB0I2COA
0000011a   UCB0I2CSA
0000011e   TBIV
00000120   WDTCTL
00000122   DMACTL0
00000124   DMACTL1
00000126   DMAIV
00000128   FCTL1
0000012a   FCTL2
0000012c   FCTL3
0000012e   TAIV
00000130   MPY
00000132   MPYS
00000134   MAC
00000136   MACS
00000138   OP2
0000013a   RESLO
0000013c   RESHI
0000013e   SUMEXT
00000140   ADC12MEM0
00000142   ADC12MEM1
00000144   ADC12MEM2
00000146   ADC12MEM3
00000148   ADC12MEM4
0000014a   ADC12MEM5
0000014c   ADC12MEM6
0000014e   ADC12MEM7
00000150   ADC12MEM8
00000152   ADC12MEM9
00000154   ADC12MEM10
00000156   ADC12MEM11
00000158   ADC12MEM12
0000015a   ADC12MEM13
0000015c   ADC12MEM14
0000015e   ADC12MEM15
00000160   TACTL
00000162   TACCTL0
00000164   TACCTL1
00000166   TACCTL2
00000170   TAR
00000172   TACCR0
00000174   TACCR1
00000176   TACCR2
00000180   TBCTL
00000182   TBCCTL0
00000184   TBCCTL1
00000186   TBCCTL2
00000188   TBCCTL3
0000018a   TBCCTL4
0000018c   TBCCTL5
0000018e   TBCCTL6
00000190   TBR
00000192   TBCCR0
00000194   TBCCR1
00000196   TBCCR2
00000198   TBCCR3
0000019a   TBCCR4
0000019c   TBCCR5
0000019e   TBCCR6
000001a0   ADC12CTL0
000001a2   ADC12CTL1
000001a4   ADC12IFG
000001a6   ADC12IE
000001a8   ADC12IV
000001c0   DAC12_0CTL
000001c2   DAC12_1CTL
000001c8   DAC12_0DAT
000001ca   DAC12_1DAT
000001d0   DMA0CTL
000001d2   DMA0SA
000001d2   DMA0SAL
000001d6   DMA0DA
000001d6   DMA0DAL
000001da   DMA0SZ
000001dc   DMA1CTL
000001de   DMA1SA
000001de   DMA1SAL
000001e2   DMA1DA
000001e2   DMA1DAL
000001e6   DMA1SZ
000001e8   DMA2CTL
000001ea   DMA2SA
000001ea   DMA2SAL
000001ee   DMA2DA
000001ee   DMA2DAL
000001f2   DMA2SZ
00001100   .bss
00001100   __bss__
00001100   mbi
00001180   mbpos
00001182   ucRXBuffer
000011a2   ucWriteIndex
000011a3   ucReadIndex
000011a4   cmdstatus
000011a6   i
000011a8   ADCresult
000011aa   DegC
000011ae   DegF
000011b2   timedout
00001254   two_second_intervals
00001256   minutes_counter
00001258   control_state
0000125a   datastore
00001270   transmit_log
00001286   tx_byte
00001288   tempAverage
0000128c   _lock
00001290   _unlock
00001294   _cleanup_ptr
00001298   _dtors_ptr
000012a4   __end__
000012a4   _sys_memory
000012a4   end
000020b0   _stack
00002100   __STACK_END
00002100   __cinit__
00002100   cinit
00002240   USCIA0RX_ISR
00002272   _c_int00
00002272   _c_int00_noexit
0000229c   ADC12ISR
000022aa   basic_timer
000022b4   transComms
0000251c   _printfi_minimal
000025dc   malloc
00002682   free
00002702   performPost
0000276e   store_data
000027d6   ackSGACT
00002830   initComms
00002888   initialize
000028e0   __divul
000028e0   __remul
0000298a   getResponse
000029d8   retrieve_data
00002a26   sendCmd
00002a74   _auto_init
00002aba   initialize_fifo
00002b3c   __divli
00002b3c   __remli
00002b7c   minit
00002bb6   sprintf
00002bee   Transmit
00002c20   __mpyl_hw
00002caa   memccpy
00002cd2   tick
00002cfa   getRXBufferChar
00002d20   memcmp
00002d44   ackOK
00002d62   measure_temperature
00002d80   process_state
00002dce   strcmp
00002de6   __divu
00002de6   __remu
00002dfc   __mpyi_hw
00002e12   memset
00002e38   clearRXBuffer
00002e4a   memcpy
00002e5c   strlen
00002e6e   configure_timer
00002e7c   isRXBufferEmpty
00002e8a   not_empty
00002e98   ackPost
00002ea0   ackSD
00002ea8   show_tick
00002eb0   main
00002eb6   _system_pre_init
00002eba   C$$EXIT
00002eba   abort
00002ebe   _nop
0000fffe   _reset_vector
ffffffff   .text
ffffffff   __binit__
ffffffff   __c_args__
ffffffff   __etext__
ffffffff   __pinit__
ffffffff   __text__
ffffffff   binit
ffffffff   etext
ffffffff   pinit

[345 symbols]
